; Function Attrs: mustprogress uwtable
define hidden void @_ZN5zxing6qrcode8Detector10sampleGridENS_3RefINS_9BitMatrixEEEiNS2_INS_20PerspectiveTransformEEERNS_12ErrorHandlerE(ptr dead_on_unwind noalias writable writeonly sret(%"class.zxing::Ref") align 8 captures(none) %0, ptr noundef readonly captures(none) %1, i32 noundef %2, ptr noundef readonly captures(none) %3, ptr noundef nonnull align 8 dereferenceable(48) %4) local_unnamed_addr #1 align 2 personality ptr @__gxx_personality_v0 {
  %6 = alloca %"class.zxing::Ref", align 8
  %7 = alloca %"class.zxing::Ref", align 8
  %8 = alloca %"class.zxing::Ref.29", align 8
  %9 = tail call noundef nonnull align 1 dereferenceable(1) ptr @_ZN5zxing11GridSampler11getInstanceEv()
  call void @llvm.lifetime.start.p0(i64 8, ptr nonnull %6) #17
  %10 = load ptr, ptr %1, align 8, !tbaa !10
  %.not.i.i = icmp eq ptr %10, null
  br i1 %.not.i.i, label %_ZN5zxing3RefINS_9BitMatrixEEC2ERKS2_.exit, label %11

11:                                               ; preds = %5
  %12 = getelementptr inbounds nuw i8, ptr %10, i64 8
  %13 = load i32, ptr %12, align 8, !tbaa !3
  %14 = add i32 %13, 1
  store i32 %14, ptr %12, align 8, !tbaa !3
  br label %_ZN5zxing3RefINS_9BitMatrixEEC2ERKS2_.exit

_ZN5zxing3RefINS_9BitMatrixEEC2ERKS2_.exit:       ; preds = %5, %11
  store ptr %10, ptr %7, align 8, !tbaa !10
  %15 = load ptr, ptr %3, align 8, !tbaa !108
  %.not.i.i10 = icmp eq ptr %15, null
  br i1 %.not.i.i10, label %20, label %16

16:                                               ; preds = %_ZN5zxing3RefINS_9BitMatrixEEC2ERKS2_.exit
  %17 = getelementptr inbounds nuw i8, ptr %15, i64 8
  %18 = load i32, ptr %17, align 8, !tbaa !3
  %19 = add i32 %18, 1
  store i32 %19, ptr %17, align 8, !tbaa !3
  br label %20

20:                                               ; preds = %16, %_ZN5zxing3RefINS_9BitMatrixEEC2ERKS2_.exit
  store ptr %15, ptr %8, align 8, !tbaa !108
  invoke void @_ZN5zxing11GridSampler10sampleGridENS_3RefINS_9BitMatrixEEEiNS1_INS_20PerspectiveTransformEEERNS_12ErrorHandlerE(ptr dead_on_unwind nonnull writable sret(%"class.zxing::Ref") align 8 %6, ptr noundef nonnull align 1 dereferenceable(1) %9, ptr noundef nonnull %7, i32 noundef %2, ptr noundef nonnull %8, ptr noundef nonnull align 8 dereferenceable(48) %4)
          to label %21 unwind label %47

21:                                               ; preds = %20
  %22 = load ptr, ptr %8, align 8, !tbaa !108
  %.not.i = icmp eq ptr %22, null
  br i1 %.not.i, label %_ZN5zxing3RefINS_20PerspectiveTransformEED2Ev.exit, label %23

23:                                               ; preds = %21
  %24 = getelementptr inbounds nuw i8, ptr %22, i64 8
  %25 = load i32, ptr %24, align 8, !tbaa !3
  %26 = add i32 %25, -1
  store i32 %26, ptr %24, align 8, !tbaa !3
  %27 = icmp eq i32 %26, 0
  br i1 %27, label %28, label %_ZN5zxing3RefINS_20PerspectiveTransformEED2Ev.exit

28:                                               ; preds = %23
  store i32 -559026175, ptr %24, align 8, !tbaa !3
  %29 = load ptr, ptr %22, align 8, !tbaa !8
  %30 = getelementptr inbounds nuw i8, ptr %29, i64 8
  %31 = load ptr, ptr %30, align 8
  call void %31(ptr noundef nonnull align 8 dereferenceable(12) %22) #17
  br label %_ZN5zxing3RefINS_20PerspectiveTransformEED2Ev.exit

_ZN5zxing3RefINS_20PerspectiveTransformEED2Ev.exit: ; preds = %21, %23, %28
  %32 = load ptr, ptr %7, align 8, !tbaa !10
  %.not.i11 = icmp eq ptr %32, null
  br i1 %.not.i11, label %_ZN5zxing3RefINS_9BitMatrixEED2Ev.exit, label %33

33:                                               ; preds = %_ZN5zxing3RefINS_20PerspectiveTransformEED2Ev.exit
  %34 = getelementptr inbounds nuw i8, ptr %32, i64 8
  %35 = load i32, ptr %34, align 8, !tbaa !3
  %36 = add i32 %35, -1
  store i32 %36, ptr %34, align 8, !tbaa !3
  %37 = icmp eq i32 %36, 0
  br i1 %37, label %38, label %_ZN5zxing3RefINS_9BitMatrixEED2Ev.exit

38:                                               ; preds = %33
  store i32 -559026175, ptr %34, align 8, !tbaa !3
  %39 = load ptr, ptr %32, align 8, !tbaa !8
  %40 = getelementptr inbounds nuw i8, ptr %39, i64 8
  %41 = load ptr, ptr %40, align 8
  call void %41(ptr noundef nonnull align 8 dereferenceable(12) %32) #17
  br label %_ZN5zxing3RefINS_9BitMatrixEED2Ev.exit

_ZN5zxing3RefINS_9BitMatrixEED2Ev.exit:           ; preds = %_ZN5zxing3RefINS_20PerspectiveTransformEED2Ev.exit, %33, %38
  %42 = load ptr, ptr %4, align 8, !tbaa !8
  %43 = getelementptr inbounds nuw i8, ptr %42, i64 16
  %44 = load ptr, ptr %43, align 8
  %45 = invoke noundef i32 %44(ptr noundef nonnull align 8 dereferenceable(48) %4)
          to label %46 unwind label %66

46:                                               ; preds = %_ZN5zxing3RefINS_9BitMatrixEED2Ev.exit
  %.not = icmp eq i32 %45, 0
  %.pre = load ptr, ptr %6, align 8, !tbaa !10
  br i1 %.not, label %75, label %_ZN5zxing3RefINS_9BitMatrixEEC2ERKS2_.exit19

47:                                               ; preds = %20
  %48 = landingpad { ptr, i32 }
          cleanup
  %49 = load ptr, ptr %8, align 8, !tbaa !108
  %.not.i12 = icmp eq ptr %49, null
  br i1 %.not.i12, label %_ZN5zxing3RefINS_20PerspectiveTransformEED2Ev.exit13, label %50

50:                                               ; preds = %47
  %51 = getelementptr inbounds nuw i8, ptr %49, i64 8
  %52 = load i32, ptr %51, align 8, !tbaa !3
  %53 = add i32 %52, -1
  store i32 %53, ptr %51, align 8, !tbaa !3
  %54 = icmp eq i32 %53, 0
  br i1 %54, label %55, label %_ZN5zxing3RefINS_20PerspectiveTransformEED2Ev.exit13

55:                                               ; preds = %50
  store i32 -559026175, ptr %51, align 8, !tbaa !3
  %56 = load ptr, ptr %49, align 8, !tbaa !8
  %57 = getelementptr inbounds nuw i8, ptr %56, i64 8
  %58 = load ptr, ptr %57, align 8
  call void %58(ptr noundef nonnull align 8 dereferenceable(12) %49) #17
  br label %_ZN5zxing3RefINS_20PerspectiveTransformEED2Ev.exit13

_ZN5zxing3RefINS_20PerspectiveTransformEED2Ev.exit13: ; preds = %55, %50, %47
  %59 = load ptr, ptr %7, align 8, !tbaa !10
  %.not.i14 = icmp eq ptr %59, null
  br i1 %.not.i14, label %_ZN5zxing3RefINS_9BitMatrixEED2Ev.exit15, label %60

60:                                               ; preds = %_ZN5zxing3RefINS_20PerspectiveTransformEED2Ev.exit13
  %61 = getelementptr inbounds nuw i8, ptr %59, i64 8
  %62 = load i32, ptr %61, align 8, !tbaa !3
  %63 = add i32 %62, -1
  store i32 %63, ptr %61, align 8, !tbaa !3
  %64 = icmp eq i32 %63, 0
  br i1 %64, label %65, label %_ZN5zxing3RefINS_9BitMatrixEED2Ev.exit15

65:                                               ; preds = %60
  store i32 -559026175, ptr %61, align 8, !tbaa !3
  br label %_ZN5zxing3RefINS_9BitMatrixEED2Ev.exit15.sink.split

66:                                               ; preds = %_ZN5zxing3RefINS_9BitMatrixEED2Ev.exit
  %67 = landingpad { ptr, i32 }
          cleanup
  %68 = load ptr, ptr %6, align 8, !tbaa !10
  %.not.i16 = icmp eq ptr %68, null
  br i1 %.not.i16, label %_ZN5zxing3RefINS_9BitMatrixEED2Ev.exit15, label %69

69:                                               ; preds = %66
  %70 = getelementptr inbounds nuw i8, ptr %68, i64 8
  %71 = load i32, ptr %70, align 8, !tbaa !3
  %72 = add i32 %71, -1
  store i32 %72, ptr %70, align 8, !tbaa !3
  %73 = icmp eq i32 %72, 0
  br i1 %73, label %74, label %_ZN5zxing3RefINS_9BitMatrixEED2Ev.exit15

74:                                               ; preds = %69
  store i32 -559026175, ptr %70, align 8, !tbaa !3
  br label %_ZN5zxing3RefINS_9BitMatrixEED2Ev.exit15.sink.split

75:                                               ; preds = %46
  %.not.i.i18 = icmp eq ptr %.pre, null
  br i1 %.not.i.i18, label %_ZN5zxing3RefINS_9BitMatrixEEC2ERKS2_.exit19.thread, label %_ZN5zxing3RefINS_9BitMatrixEEC2ERKS2_.exit19.thread24

_ZN5zxing3RefINS_9BitMatrixEEC2ERKS2_.exit19.thread: ; preds = %75
  store ptr null, ptr %0, align 8, !tbaa !10
  br label %_ZN5zxing3RefINS_9BitMatrixEED2Ev.exit21

_ZN5zxing3RefINS_9BitMatrixEEC2ERKS2_.exit19.thread24: ; preds = %75
  %76 = getelementptr inbounds nuw i8, ptr %.pre, i64 8
  %77 = load i32, ptr %76, align 8, !tbaa !3
  %78 = add i32 %77, 1
  store i32 %78, ptr %76, align 8, !tbaa !3
  store ptr %.pre, ptr %0, align 8, !tbaa !10
  br label %79

_ZN5zxing3RefINS_9BitMatrixEEC2ERKS2_.exit19:     ; preds = %46
  store ptr null, ptr %0, align 8, !tbaa !10
  %.not.i20 = icmp eq ptr %.pre, null
  br i1 %.not.i20, label %_ZN5zxing3RefINS_9BitMatrixEED2Ev.exit21, label %79

79:                                               ; preds = %_ZN5zxing3RefINS_9BitMatrixEEC2ERKS2_.exit19.thread24, %_ZN5zxing3RefINS_9BitMatrixEEC2ERKS2_.exit19
  %80 = getelementptr inbounds nuw i8, ptr %.pre, i64 8
  %81 = load i32, ptr %80, align 8, !tbaa !3
  %82 = add i32 %81, -1
  store i32 %82, ptr %80, align 8, !tbaa !3
  %83 = icmp eq i32 %82, 0
  br i1 %83, label %84, label %_ZN5zxing3RefINS_9BitMatrixEED2Ev.exit21

84:                                               ; preds = %79
  store i32 -559026175, ptr %80, align 8, !tbaa !3
  %85 = load ptr, ptr %.pre, align 8, !tbaa !8
  %86 = getelementptr inbounds nuw i8, ptr %85, i64 8
  %87 = load ptr, ptr %86, align 8
  call void %87(ptr noundef nonnull align 8 dereferenceable(12) %.pre) #17
  br label %_ZN5zxing3RefINS_9BitMatrixEED2Ev.exit21

_ZN5zxing3RefINS_9BitMatrixEED2Ev.exit21:         ; preds = %_ZN5zxing3RefINS_9BitMatrixEEC2ERKS2_.exit19.thread, %_ZN5zxing3RefINS_9BitMatrixEEC2ERKS2_.exit19, %79, %84
  call void @llvm.lifetime.end.p0(i64 8, ptr nonnull %6) #17
  ret void

_ZN5zxing3RefINS_9BitMatrixEED2Ev.exit15.sink.split: ; preds = %65, %74
  %.sink30 = phi ptr [ %68, %74 ], [ %59, %65 ]
  %.pn8.ph = phi { ptr, i32 } [ %67, %74 ], [ %48, %65 ]
  %88 = load ptr, ptr %.sink30, align 8, !tbaa !8
  %89 = getelementptr inbounds nuw i8, ptr %88, i64 8
  %90 = load ptr, ptr %89, align 8
  call void %90(ptr noundef nonnull align 8 dereferenceable(12) %.sink30) #17
  br label %_ZN5zxing3RefINS_9BitMatrixEED2Ev.exit15

_ZN5zxing3RefINS_9BitMatrixEED2Ev.exit15:         ; preds = %_ZN5zxing3RefINS_9BitMatrixEED2Ev.exit15.sink.split, %69, %66, %60, %_ZN5zxing3RefINS_20PerspectiveTransformEED2Ev.exit13
  %.pn8 = phi { ptr, i32 } [ %48, %_ZN5zxing3RefINS_20PerspectiveTransformEED2Ev.exit13 ], [ %48, %60 ], [ %67, %66 ], [ %67, %69 ], [ %.pn8.ph, %_ZN5zxing3RefINS_9BitMatrixEED2Ev.exit15.sink.split ]
  call void @llvm.lifetime.end.p0(i64 8, ptr nonnull %6) #17
  resume { ptr, i32 } %.pn8
}